; Function Attrs: nounwind uwtable
define hidden range(i32 -1, 1) i32 @av1_check_trailing_bits(ptr noundef writeonly captures(none) %0, ptr noundef %1) local_unnamed_addr #0 {
  %3 = getelementptr inbounds nuw i8, ptr %1, i64 16
  %4 = load i32, ptr %3, align 8
  %5 = and i32 %4, 7
  %6 = sub nuw nsw i32 8, %5
  %7 = tail call i32 @aom_rb_read_literal(ptr noundef %1, i32 noundef %6) #16
  %8 = xor i32 %5, 7
  %9 = shl nuw nsw i32 1, %8
  %.not = icmp eq i32 %7, %9
  br i1 %.not, label %12, label %10

10:                                               ; preds = %2
  %11 = getelementptr inbounds nuw i8, ptr %0, i64 48008
  store i32 7, ptr %11, align 8
  br label %12

12:                                               ; preds = %2, %10
  %.0 = phi i32 [ -1, %10 ], [ 0, %2 ]
  ret i32 %.0
}